; ModuleID = '63/1353.c'
source_filename = "63/1353.c"
target datalayout = "e-m:e-p270:32:32-p271:32:32-p272:64:64-i64:64-f80:128-n8:16:32:64-S128"
target triple = "x86_64-pc-linux-gnu"

@.str = private unnamed_addr constant [5 x i8] c"%d%d\00", align 1
@.str.1 = private unnamed_addr constant [3 x i8] c"%d\00", align 1
@.str.2 = private unnamed_addr constant [2 x i8] c" \00", align 1
@.str.3 = private unnamed_addr constant [2 x i8] c"\0A\00", align 1

; Function Attrs: noinline nounwind uwtable
define dso_local i32 @main() #0 {
  %1 = alloca i32, align 4
  %2 = alloca [101 x [101 x i32]], align 16
  %3 = alloca [101 x [101 x i32]], align 16
  %4 = alloca [101 x [101 x i32]], align 16
  %5 = alloca i32, align 4
  %6 = alloca i32, align 4
  %7 = alloca i32, align 4
  %8 = alloca i32, align 4
  %9 = alloca i32, align 4
  %10 = alloca i32, align 4
  %11 = alloca i32, align 4
  store i32 0, i32* %1, align 4
  %12 = call i32 (i8*, ...) @__isoc99_scanf(i8* getelementptr inbounds ([5 x i8], [5 x i8]* @.str, i64 0, i64 0), i32* %7, i32* %8)
  store i32 0, i32* %5, align 4
  br label %13

13:                                               ; preds = %34, %0
  %14 = load i32, i32* %5, align 4
  %15 = load i32, i32* %7, align 4
  %16 = icmp slt i32 %14, %15
  br i1 %16, label %17, label %37

17:                                               ; preds = %13
  store i32 0, i32* %6, align 4
  br label %18

18:                                               ; preds = %30, %17
  %19 = load i32, i32* %6, align 4
  %20 = load i32, i32* %8, align 4
  %21 = icmp slt i32 %19, %20
  br i1 %21, label %22, label %33

22:                                               ; preds = %18
  %23 = load i32, i32* %5, align 4
  %24 = sext i32 %23 to i64
  %25 = getelementptr inbounds [101 x [101 x i32]], [101 x [101 x i32]]* %2, i64 0, i64 %24
  %26 = load i32, i32* %6, align 4
  %27 = sext i32 %26 to i64
  %28 = getelementptr inbounds [101 x i32], [101 x i32]* %25, i64 0, i64 %27
  %29 = call i32 (i8*, ...) @__isoc99_scanf(i8* getelementptr inbounds ([3 x i8], [3 x i8]* @.str.1, i64 0, i64 0), i32* %28)
  br label %30

30:                                               ; preds = %22
  %31 = load i32, i32* %6, align 4
  %32 = add nsw i32 %31, 1
  store i32 %32, i32* %6, align 4
  br label %18

33:                                               ; preds = %18
  br label %34

34:                                               ; preds = %33
  %35 = load i32, i32* %5, align 4
  %36 = add nsw i32 %35, 1
  store i32 %36, i32* %5, align 4
  br label %13

37:                                               ; preds = %13
  %38 = call i32 (i8*, ...) @__isoc99_scanf(i8* getelementptr inbounds ([5 x i8], [5 x i8]* @.str, i64 0, i64 0), i32* %9, i32* %10)
  store i32 0, i32* %5, align 4
  br label %39

39:                                               ; preds = %60, %37
  %40 = load i32, i32* %5, align 4
  %41 = load i32, i32* %9, align 4
  %42 = icmp slt i32 %40, %41
  br i1 %42, label %43, label %63

43:                                               ; preds = %39
  store i32 0, i32* %6, align 4
  br label %44

44:                                               ; preds = %56, %43
  %45 = load i32, i32* %6, align 4
  %46 = load i32, i32* %10, align 4
  %47 = icmp slt i32 %45, %46
  br i1 %47, label %48, label %59

48:                                               ; preds = %44
  %49 = load i32, i32* %5, align 4
  %50 = sext i32 %49 to i64
  %51 = getelementptr inbounds [101 x [101 x i32]], [101 x [101 x i32]]* %3, i64 0, i64 %50
  %52 = load i32, i32* %6, align 4
  %53 = sext i32 %52 to i64
  %54 = getelementptr inbounds [101 x i32], [101 x i32]* %51, i64 0, i64 %53
  %55 = call i32 (i8*, ...) @__isoc99_scanf(i8* getelementptr inbounds ([3 x i8], [3 x i8]* @.str.1, i64 0, i64 0), i32* %54)
  br label %56

56:                                               ; preds = %48
  %57 = load i32, i32* %6, align 4
  %58 = add nsw i32 %57, 1
  store i32 %58, i32* %6, align 4
  br label %44

59:                                               ; preds = %44
  br label %60

60:                                               ; preds = %59
  %61 = load i32, i32* %5, align 4
  %62 = add nsw i32 %61, 1
  store i32 %62, i32* %5, align 4
  br label %39

63:                                               ; preds = %39
  store i32 0, i32* %5, align 4
  br label %64

64:                                               ; preds = %84, %63
  %65 = load i32, i32* %5, align 4
  %66 = load i32, i32* %7, align 4
  %67 = icmp slt i32 %65, %66
  br i1 %67, label %68, label %87

68:                                               ; preds = %64
  store i32 0, i32* %6, align 4
  br label %69

69:                                               ; preds = %80, %68
  %70 = load i32, i32* %6, align 4
  %71 = load i32, i32* %10, align 4
  %72 = icmp slt i32 %70, %71
  br i1 %72, label %73, label %83

73:                                               ; preds = %69
  %74 = load i32, i32* %5, align 4
  %75 = sext i32 %74 to i64
  %76 = getelementptr inbounds [101 x [101 x i32]], [101 x [101 x i32]]* %4, i64 0, i64 %75
  %77 = load i32, i32* %6, align 4
  %78 = sext i32 %77 to i64
  %79 = getelementptr inbounds [101 x i32], [101 x i32]* %76, i64 0, i64 %78
  store i32 0, i32* %79, align 4
  br label %80

80:                                               ; preds = %73
  %81 = load i32, i32* %6, align 4
  %82 = add nsw i32 %81, 1
  store i32 %82, i32* %6, align 4
  br label %69

83:                                               ; preds = %69
  br label %84

84:                                               ; preds = %83
  %85 = load i32, i32* %5, align 4
  %86 = add nsw i32 %85, 1
  store i32 %86, i32* %5, align 4
  br label %64

87:                                               ; preds = %64
  store i32 0, i32* %5, align 4
  br label %88

88:                                               ; preds = %140, %87
  %89 = load i32, i32* %5, align 4
  %90 = load i32, i32* %7, align 4
  %91 = icmp slt i32 %89, %90
  br i1 %91, label %92, label %143

92:                                               ; preds = %88
  store i32 0, i32* %6, align 4
  br label %93

93:                                               ; preds = %136, %92
  %94 = load i32, i32* %6, align 4
  %95 = load i32, i32* %10, align 4
  %96 = icmp slt i32 %94, %95
  br i1 %96, label %97, label %139

97:                                               ; preds = %93
  store i32 0, i32* %11, align 4
  br label %98

98:                                               ; preds = %132, %97
  %99 = load i32, i32* %11, align 4
  %100 = load i32, i32* %8, align 4
  %101 = icmp slt i32 %99, %100
  br i1 %101, label %102, label %135

102:                                              ; preds = %98
  %103 = load i32, i32* %5, align 4
  %104 = sext i32 %103 to i64
  %105 = getelementptr inbounds [101 x [101 x i32]], [101 x [101 x i32]]* %4, i64 0, i64 %104
  %106 = load i32, i32* %6, align 4
  %107 = sext i32 %106 to i64
  %108 = getelementptr inbounds [101 x i32], [101 x i32]* %105, i64 0, i64 %107
  %109 = load i32, i32* %108, align 4
  %110 = load i32, i32* %5, align 4
  %111 = sext i32 %110 to i64
  %112 = getelementptr inbounds [101 x [101 x i32]], [101 x [101 x i32]]* %2, i64 0, i64 %111
  %113 = load i32, i32* %11, align 4
  %114 = sext i32 %113 to i64
  %115 = getelementptr inbounds [101 x i32], [101 x i32]* %112, i64 0, i64 %114
  %116 = load i32, i32* %115, align 4
  %117 = load i32, i32* %11, align 4
  %118 = sext i32 %117 to i64
  %119 = getelementptr inbounds [101 x [101 x i32]], [101 x [101 x i32]]* %3, i64 0, i64 %118
  %120 = load i32, i32* %6, align 4
  %121 = sext i32 %120 to i64
  %122 = getelementptr inbounds [101 x i32], [101 x i32]* %119, i64 0, i64 %121
  %123 = load i32, i32* %122, align 4
  %124 = mul nsw i32 %116, %123
  %125 = add nsw i32 %109, %124
  %126 = load i32, i32* %5, align 4
  %127 = sext i32 %126 to i64
  %128 = getelementptr inbounds [101 x [101 x i32]], [101 x [101 x i32]]* %4, i64 0, i64 %127
  %129 = load i32, i32* %6, align 4
  %130 = sext i32 %129 to i64
  %131 = getelementptr inbounds [101 x i32], [101 x i32]* %128, i64 0, i64 %130
  store i32 %125, i32* %131, align 4
  br label %132

132:                                              ; preds = %102
  %133 = load i32, i32* %11, align 4
  %134 = add nsw i32 %133, 1
  store i32 %134, i32* %11, align 4
  br label %98

135:                                              ; preds = %98
  br label %136

136:                                              ; preds = %135
  %137 = load i32, i32* %6, align 4
  %138 = add nsw i32 %137, 1
  store i32 %138, i32* %6, align 4
  br label %93

139:                                              ; preds = %93
  br label %140

140:                                              ; preds = %139
  %141 = load i32, i32* %5, align 4
  %142 = add nsw i32 %141, 1
  store i32 %142, i32* %5, align 4
  br label %88

143:                                              ; preds = %88
  store i32 0, i32* %5, align 4
  br label %144

144:                                              ; preds = %174, %143
  %145 = load i32, i32* %5, align 4
  %146 = load i32, i32* %7, align 4
  %147 = icmp slt i32 %145, %146
  br i1 %147, label %148, label %177

148:                                              ; preds = %144
  store i32 0, i32* %6, align 4
  br label %149

149:                                              ; preds = %169, %148
  %150 = load i32, i32* %6, align 4
  %151 = load i32, i32* %10, align 4
  %152 = icmp slt i32 %150, %151
  br i1 %152, label %153, label %172

153:                                              ; preds = %149
  %154 = load i32, i32* %5, align 4
  %155 = sext i32 %154 to i64
  %156 = getelementptr inbounds [101 x [101 x i32]], [101 x [101 x i32]]* %4, i64 0, i64 %155
  %157 = load i32, i32* %6, align 4
  %158 = sext i32 %157 to i64
  %159 = getelementptr inbounds [101 x i32], [101 x i32]* %156, i64 0, i64 %158
  %160 = load i32, i32* %159, align 4
  %161 = call i32 (i8*, ...) @printf(i8* getelementptr inbounds ([3 x i8], [3 x i8]* @.str.1, i64 0, i64 0), i32 %160)
  %162 = load i32, i32* %6, align 4
  %163 = load i32, i32* %10, align 4
  %164 = sub nsw i32 %163, 1
  %165 = icmp ne i32 %162, %164
  br i1 %165, label %166, label %168

166:                                              ; preds = %153
  %167 = call i32 (i8*, ...) @printf(i8* getelementptr inbounds ([2 x i8], [2 x i8]* @.str.2, i64 0, i64 0))
  br label %168

168:                                              ; preds = %166, %153
  br label %169

169:                                              ; preds = %168
  %170 = load i32, i32* %6, align 4
  %171 = add nsw i32 %170, 1
  store i32 %171, i32* %6, align 4
  br label %149

172:                                              ; preds = %149
  %173 = call i32 (i8*, ...) @printf(i8* getelementptr inbounds ([2 x i8], [2 x i8]* @.str.3, i64 0, i64 0))
  br label %174

174:                                              ; preds = %172
  %175 = load i32, i32* %5, align 4
  %176 = add nsw i32 %175, 1
  store i32 %176, i32* %5, align 4
  br label %144

177:                                              ; preds = %144
  ret i32 0
}

declare dso_local i32 @__isoc99_scanf(i8*, ...) #1

declare dso_local i32 @printf(i8*, ...) #1


!llvm.module.flags = !{!0}
!llvm.ident = !{!1}

!0 = !{i32 1, !"wchar_size", i32 4}
!1 = !{!"clang version 10.0.0-4ubuntu1 "}
